target datalayout = "e-m:e-p270:32:32-p271:32:32-p272:64:64-i64:64-i128:128-f80:128-n8:16:32:64-S128"
target triple = "x86_64-pc-linux-gnu"

%struct.AVRational = type { i32, i32 }
%struct.AVCodecContext = type { ptr, i32, i32, ptr, i32, i32, ptr, ptr, ptr, i64, i32, i32, ptr, i32, %struct.AVRational, %struct.AVRational, %struct.AVRational, i32, i32, i32, i32, i32, %struct.AVRational, i32, i32, i32, i32, i32, i32, i32, i32, i32, i32, i32, ptr, ptr, i32, float, float, float, float, float, float, float, float, float, i32, i32, i32, i32, i32, i32, i32, i32, i32, i32, i32, i32, ptr, ptr, ptr, i32, i32, i32, i32, i32, i32, i32, i32, i32, i32, %struct.AVChannelLayout, i32, i32, i32, i32, i32, i32, i32, i32, ptr, i32, i32, i32, float, float, i32, i32, i32, i32, i32, ptr, i64, i64, float, float, i32, i32, ptr, ptr, i32, i32, i32, i32, i32, ptr, ptr, ptr, ptr, i32, i32, [8 x i64], i32, i32, i32, i32, i32, i32, i32, ptr, ptr, i32, i32, i32, i32, i32, i32, i32, i32, i32, i32, ptr, ptr, i32, i32, ptr, ptr, ptr, ptr, i32, i32, i64, i32, i32, i64, ptr, i64, ptr, i32, ptr, i32 }
%struct.AVChannelLayout = type { i32, i32, %union.anon, ptr }
%union.anon = type { i64 }
%struct.TwinVQContext = type { ptr, ptr, [3 x ptr], [3 x ptr], ptr, i32, [2 x [20 x float]], [3 x [2 x [40 x float]]], [4 x [4096 x i16]], [4 x [2 x i8]], [4 x i8], [2 x [4 x [2 x i8]]], [4 x i32], [4 x i32], ptr, ptr, ptr, [2 x i32], i32, [3 x ptr], ptr, i32, i32, i32, [2 x %struct.TwinVQFrameData], i32, ptr, ptr, ptr }
%struct.TwinVQFrameData = type { i32, i32, [1024 x i8], [60 x i8], [2 x i8], [32 x i8], [2 x [16 x [4 x i8]]], [2 x [16 x i8]], [2 x i8], [2 x [4 x i8]], [2 x i8], [2 x i32], [2 x i32] }
%struct.TwinVQModeTab = type { [3 x %struct.TwinVQFrameMode], i16, i8, ptr, i8, i8, i8, i8, ptr, i8, i8, i8, i8, i16 }
%struct.TwinVQFrameMode = type { i8, ptr, i8, ptr, i8, i8, ptr, ptr, i8 }

; Function Attrs: nounwind uwtable
define internal void @linear_perm(ptr noundef %0, ptr noundef %1, i32 noundef %2, i32 noundef %3) #0 {
  %5 = alloca ptr, align 8
  %6 = alloca ptr, align 8
  %7 = alloca i32, align 4
  %8 = alloca i32, align 4
  %9 = alloca i32, align 4
  %10 = alloca i32, align 4
  store ptr %0, ptr %5, align 8, !tbaa !125
  store ptr %1, ptr %6, align 8, !tbaa !125
  store i32 %2, ptr %7, align 4, !tbaa !25
  store i32 %3, ptr %8, align 4, !tbaa !25
  call void @llvm.lifetime.start.p0(i64 4, ptr %9) #8
  %11 = load i32, ptr %8, align 4, !tbaa !25
  %12 = load i32, ptr %7, align 4, !tbaa !25
  %13 = sdiv i32 %11, %12
  store i32 %13, ptr %9, align 4, !tbaa !25
  call void @llvm.lifetime.start.p0(i64 4, ptr %10) #8
  store i32 0, ptr %10, align 4, !tbaa !25
  br label %14

14:                                               ; preds = %43, %4
  %15 = load i32, ptr %10, align 4, !tbaa !25
  %16 = load i32, ptr %8, align 4, !tbaa !25
  %17 = icmp slt i32 %15, %16
  br i1 %17, label %18, label %46

18:                                               ; preds = %14
  %19 = load i32, ptr %9, align 4, !tbaa !25
  %20 = load ptr, ptr %6, align 8, !tbaa !125
  %21 = load i32, ptr %10, align 4, !tbaa !25
  %22 = sext i32 %21 to i64
  %23 = getelementptr inbounds i16, ptr %20, i64 %22
  %24 = load i16, ptr %23, align 2, !tbaa !126
  %25 = sext i16 %24 to i32
  %26 = load i32, ptr %7, align 4, !tbaa !25
  %27 = srem i32 %25, %26
  %28 = mul nsw i32 %19, %27
  %29 = load ptr, ptr %6, align 8, !tbaa !125
  %30 = load i32, ptr %10, align 4, !tbaa !25
  %31 = sext i32 %30 to i64
  %32 = getelementptr inbounds i16, ptr %29, i64 %31
  %33 = load i16, ptr %32, align 2, !tbaa !126
  %34 = sext i16 %33 to i32
  %35 = load i32, ptr %7, align 4, !tbaa !25
  %36 = sdiv i32 %34, %35
  %37 = add nsw i32 %28, %36
  %38 = trunc i32 %37 to i16
  %39 = load ptr, ptr %5, align 8, !tbaa !125
  %40 = load i32, ptr %10, align 4, !tbaa !25
  %41 = sext i32 %40 to i64
  %42 = getelementptr inbounds i16, ptr %39, i64 %41
  store i16 %38, ptr %42, align 2, !tbaa !126
  br label %43

43:                                               ; preds = %18
  %44 = load i32, ptr %10, align 4, !tbaa !25
  %45 = add nsw i32 %44, 1
  store i32 %45, ptr %10, align 4, !tbaa !25
  br label %14, !llvm.loop !153

46:                                               ; preds = %14
  call void @llvm.lifetime.end.p0(i64 4, ptr %10) #8
  call void @llvm.lifetime.end.p0(i64 4, ptr %9) #8
  ret void
}

; Function Attrs: nounwind uwtable
define internal void @transpose_perm(ptr noundef %0, ptr noundef %1, i32 noundef %2, ptr noundef %3, i32 noundef %4) #0 {
  %6 = alloca ptr, align 8
  %7 = alloca ptr, align 8
  %8 = alloca i32, align 4
  %9 = alloca ptr, align 8
  %10 = alloca i32, align 4
  %11 = alloca i32, align 4
  %12 = alloca i32, align 4
  %13 = alloca i32, align 4
  store ptr %0, ptr %6, align 8, !tbaa !125
  store ptr %1, ptr %7, align 8, !tbaa !125
  store i32 %2, ptr %8, align 4, !tbaa !25
  store ptr %3, ptr %9, align 8, !tbaa !23
  store i32 %4, ptr %10, align 4, !tbaa !25
  call void @llvm.lifetime.start.p0(i64 4, ptr %11) #8
  call void @llvm.lifetime.start.p0(i64 4, ptr %12) #8
  call void @llvm.lifetime.start.p0(i64 4, ptr %13) #8
  store i32 0, ptr %13, align 4, !tbaa !25
  store i32 0, ptr %11, align 4, !tbaa !25
  br label %14

14:                                               ; preds = %50, %5
  %15 = load i32, ptr %11, align 4, !tbaa !25
  %16 = load i32, ptr %8, align 4, !tbaa !25
  %17 = icmp slt i32 %15, %16
  br i1 %17, label %18, label %53

18:                                               ; preds = %14
  store i32 0, ptr %12, align 4, !tbaa !25
  br label %19

19:                                               ; preds = %46, %18
  %20 = load i32, ptr %12, align 4, !tbaa !25
  %21 = load ptr, ptr %9, align 8, !tbaa !23
  %22 = load i32, ptr %11, align 4, !tbaa !25
  %23 = load i32, ptr %10, align 4, !tbaa !25
  %24 = icmp sge i32 %22, %23
  %25 = zext i1 %24 to i32
  %26 = sext i32 %25 to i64
  %27 = getelementptr inbounds i8, ptr %21, i64 %26
  %28 = load i8, ptr %27, align 1, !tbaa !84
  %29 = zext i8 %28 to i32
  %30 = icmp slt i32 %20, %29
  br i1 %30, label %31, label %49

31:                                               ; preds = %19
  %32 = load ptr, ptr %7, align 8, !tbaa !125
  %33 = load i32, ptr %12, align 4, !tbaa !25
  %34 = load i32, ptr %8, align 4, !tbaa !25
  %35 = mul nsw i32 %33, %34
  %36 = load i32, ptr %11, align 4, !tbaa !25
  %37 = add nsw i32 %35, %36
  %38 = sext i32 %37 to i64
  %39 = getelementptr inbounds i16, ptr %32, i64 %38
  %40 = load i16, ptr %39, align 2, !tbaa !126
  %41 = load ptr, ptr %6, align 8, !tbaa !125
  %42 = load i32, ptr %13, align 4, !tbaa !25
  %43 = add nsw i32 %42, 1
  store i32 %43, ptr %13, align 4, !tbaa !25
  %44 = sext i32 %42 to i64
  %45 = getelementptr inbounds i16, ptr %41, i64 %44
  store i16 %40, ptr %45, align 2, !tbaa !126
  br label %46

46:                                               ; preds = %31
  %47 = load i32, ptr %12, align 4, !tbaa !25
  %48 = add nsw i32 %47, 1
  store i32 %48, ptr %12, align 4, !tbaa !25
  br label %19, !llvm.loop !151

49:                                               ; preds = %19
  br label %50

50:                                               ; preds = %49
  %51 = load i32, ptr %11, align 4, !tbaa !25
  %52 = add nsw i32 %51, 1
  store i32 %52, ptr %11, align 4, !tbaa !25
  br label %14, !llvm.loop !152

53:                                               ; preds = %14
  call void @llvm.lifetime.end.p0(i64 4, ptr %13) #8
  call void @llvm.lifetime.end.p0(i64 4, ptr %12) #8
  call void @llvm.lifetime.end.p0(i64 4, ptr %11) #8
  ret void
}

; Function Attrs: cold nounwind optsize uwtable
define internal void @construct_perm_table(ptr noundef %0, i32 noundef %1) #3 {
  %3 = alloca ptr, align 8
  %4 = alloca i32, align 4
  %5 = alloca i32, align 4
  %6 = alloca i32, align 4
  %7 = alloca ptr, align 8
  %8 = alloca ptr, align 8
  store ptr %0, ptr %3, align 8, !tbaa !39
  store i32 %1, ptr %4, align 4, !tbaa !25
  call void @llvm.lifetime.start.p0(i64 4, ptr %5) #8
  call void @llvm.lifetime.start.p0(i64 4, ptr %6) #8
  call void @llvm.lifetime.start.p0(i64 8, ptr %7) #8
  %9 = load ptr, ptr %3, align 8, !tbaa !39
  %10 = getelementptr inbounds nuw %struct.TwinVQContext, ptr %9, i32 0, i32 4
  %11 = load ptr, ptr %10, align 8, !tbaa !41
  store ptr %11, ptr %7, align 8, !tbaa !46
  call void @llvm.lifetime.start.p0(i64 8, ptr %8) #8
  %12 = load ptr, ptr %3, align 8, !tbaa !39
  %13 = getelementptr inbounds nuw %struct.TwinVQContext, ptr %12, i32 0, i32 20
  %14 = load ptr, ptr %13, align 8, !tbaa !85
  store ptr %14, ptr %8, align 8, !tbaa !125
  %15 = load i32, ptr %4, align 4, !tbaa !25
  %16 = icmp eq i32 %15, 3
  br i1 %16, label %17, label %28

17:                                               ; preds = %2
  %18 = load ptr, ptr %3, align 8, !tbaa !39
  %19 = getelementptr inbounds nuw %struct.TwinVQContext, ptr %18, i32 0, i32 0
  %20 = load ptr, ptr %19, align 8, !tbaa !74
  %21 = getelementptr inbounds nuw %struct.AVCodecContext, ptr %20, i32 0, i32 71
  %22 = getelementptr inbounds nuw %struct.AVChannelLayout, ptr %21, i32 0, i32 1
  %23 = load i32, ptr %22, align 4, !tbaa !75
  store i32 %23, ptr %6, align 4, !tbaa !25
  %24 = load ptr, ptr %7, align 8, !tbaa !46
  %25 = getelementptr inbounds nuw %struct.TwinVQModeTab, ptr %24, i32 0, i32 11
  %26 = load i8, ptr %25, align 2, !tbaa !81
  %27 = zext i8 %26 to i32
  store i32 %27, ptr %5, align 4, !tbaa !25
  br label %57

28:                                               ; preds = %2
  %29 = load ptr, ptr %3, align 8, !tbaa !39
  %30 = getelementptr inbounds nuw %struct.TwinVQContext, ptr %29, i32 0, i32 0
  %31 = load ptr, ptr %30, align 8, !tbaa !74
  %32 = getelementptr inbounds nuw %struct.AVCodecContext, ptr %31, i32 0, i32 71
  %33 = getelementptr inbounds nuw %struct.AVChannelLayout, ptr %32, i32 0, i32 1
  %34 = load i32, ptr %33, align 4, !tbaa !75
  %35 = load ptr, ptr %7, align 8, !tbaa !46
  %36 = getelementptr inbounds nuw %struct.TwinVQModeTab, ptr %35, i32 0, i32 0
  %37 = load i32, ptr %4, align 4, !tbaa !25
  %38 = zext i32 %37 to i64
  %39 = getelementptr inbounds nuw [3 x %struct.TwinVQFrameMode], ptr %36, i64 0, i64 %38
  %40 = getelementptr inbounds nuw %struct.TwinVQFrameMode, ptr %39, i32 0, i32 0
  %41 = load i8, ptr %40, align 8, !tbaa !76
  %42 = zext i8 %41 to i32
  %43 = mul nsw i32 %34, %42
  store i32 %43, ptr %6, align 4, !tbaa !25
  %44 = load ptr, ptr %7, align 8, !tbaa !46
  %45 = getelementptr inbounds nuw %struct.TwinVQModeTab, ptr %44, i32 0, i32 1
  %46 = load i16, ptr %45, align 8, !tbaa !50
  %47 = zext i16 %46 to i32
  %48 = load ptr, ptr %7, align 8, !tbaa !46
  %49 = getelementptr inbounds nuw %struct.TwinVQModeTab, ptr %48, i32 0, i32 0
  %50 = load i32, ptr %4, align 4, !tbaa !25
  %51 = zext i32 %50 to i64
  %52 = getelementptr inbounds nuw [3 x %struct.TwinVQFrameMode], ptr %49, i64 0, i64 %51
  %53 = getelementptr inbounds nuw %struct.TwinVQFrameMode, ptr %52, i32 0, i32 0
  %54 = load i8, ptr %53, align 8, !tbaa !76
  %55 = zext i8 %54 to i32
  %56 = sdiv i32 %47, %55
  store i32 %56, ptr %5, align 4, !tbaa !25
  br label %57

57:                                               ; preds = %28, %17
  %58 = load ptr, ptr %8, align 8, !tbaa !125
  %59 = load ptr, ptr %3, align 8, !tbaa !39
  %60 = getelementptr inbounds nuw %struct.TwinVQContext, ptr %59, i32 0, i32 13
  %61 = load i32, ptr %4, align 4, !tbaa !25
  %62 = zext i32 %61 to i64
  %63 = getelementptr inbounds nuw [4 x i32], ptr %60, i64 0, i64 %62
  %64 = load i32, ptr %63, align 4, !tbaa !25
  %65 = load i32, ptr %6, align 4, !tbaa !25
  %66 = load i32, ptr %5, align 4, !tbaa !25
  %67 = load ptr, ptr %3, align 8, !tbaa !39
  %68 = getelementptr inbounds nuw %struct.TwinVQContext, ptr %67, i32 0, i32 9
  %69 = load i32, ptr %4, align 4, !tbaa !25
  %70 = zext i32 %69 to i64
  %71 = getelementptr inbounds nuw [4 x [2 x i8]], ptr %68, i64 0, i64 %70
  %72 = getelementptr inbounds [2 x i8], ptr %71, i64 0, i64 0
  %73 = load ptr, ptr %3, align 8, !tbaa !39
  %74 = getelementptr inbounds nuw %struct.TwinVQContext, ptr %73, i32 0, i32 10
  %75 = load i32, ptr %4, align 4, !tbaa !25
  %76 = zext i32 %75 to i64
  %77 = getelementptr inbounds nuw [4 x i8], ptr %74, i64 0, i64 %76
  %78 = load i8, ptr %77, align 1, !tbaa !84
  %79 = zext i8 %78 to i32
  %80 = load i32, ptr %4, align 4, !tbaa !25
  call void @permutate_in_line(ptr noundef %58, i32 noundef %64, i32 noundef %65, i32 noundef %66, ptr noundef %72, i32 noundef %79, i32 noundef %80)
  %81 = load ptr, ptr %3, align 8, !tbaa !39
  %82 = getelementptr inbounds nuw %struct.TwinVQContext, ptr %81, i32 0, i32 8
  %83 = load i32, ptr %4, align 4, !tbaa !25
  %84 = zext i32 %83 to i64
  %85 = getelementptr inbounds nuw [4 x [4096 x i16]], ptr %82, i64 0, i64 %84
  %86 = getelementptr inbounds [4096 x i16], ptr %85, i64 0, i64 0
  %87 = load ptr, ptr %8, align 8, !tbaa !125
  %88 = load ptr, ptr %3, align 8, !tbaa !39
  %89 = getelementptr inbounds nuw %struct.TwinVQContext, ptr %88, i32 0, i32 13
  %90 = load i32, ptr %4, align 4, !tbaa !25
  %91 = zext i32 %90 to i64
  %92 = getelementptr inbounds nuw [4 x i32], ptr %89, i64 0, i64 %91
  %93 = load i32, ptr %92, align 4, !tbaa !25
  %94 = load ptr, ptr %3, align 8, !tbaa !39
  %95 = getelementptr inbounds nuw %struct.TwinVQContext, ptr %94, i32 0, i32 9
  %96 = load i32, ptr %4, align 4, !tbaa !25
  %97 = zext i32 %96 to i64
  %98 = getelementptr inbounds nuw [4 x [2 x i8]], ptr %95, i64 0, i64 %97
  %99 = getelementptr inbounds [2 x i8], ptr %98, i64 0, i64 0
  %100 = load ptr, ptr %3, align 8, !tbaa !39
  %101 = getelementptr inbounds nuw %struct.TwinVQContext, ptr %100, i32 0, i32 10
  %102 = load i32, ptr %4, align 4, !tbaa !25
  %103 = zext i32 %102 to i64
  %104 = getelementptr inbounds nuw [4 x i8], ptr %101, i64 0, i64 %103
  %105 = load i8, ptr %104, align 1, !tbaa !84
  %106 = zext i8 %105 to i32
  call void @transpose_perm(ptr noundef %86, ptr noundef %87, i32 noundef %93, ptr noundef %99, i32 noundef %106)
  %107 = load ptr, ptr %3, align 8, !tbaa !39
  %108 = getelementptr inbounds nuw %struct.TwinVQContext, ptr %107, i32 0, i32 8
  %109 = load i32, ptr %4, align 4, !tbaa !25
  %110 = zext i32 %109 to i64
  %111 = getelementptr inbounds nuw [4 x [4096 x i16]], ptr %108, i64 0, i64 %110
  %112 = getelementptr inbounds [4096 x i16], ptr %111, i64 0, i64 0
  %113 = load ptr, ptr %3, align 8, !tbaa !39
  %114 = getelementptr inbounds nuw %struct.TwinVQContext, ptr %113, i32 0, i32 8
  %115 = load i32, ptr %4, align 4, !tbaa !25
  %116 = zext i32 %115 to i64
  %117 = getelementptr inbounds nuw [4 x [4096 x i16]], ptr %114, i64 0, i64 %116
  %118 = getelementptr inbounds [4096 x i16], ptr %117, i64 0, i64 0
  %119 = load i32, ptr %6, align 4, !tbaa !25
  %120 = load i32, ptr %6, align 4, !tbaa !25
  %121 = load i32, ptr %5, align 4, !tbaa !25
  %122 = mul nsw i32 %120, %121
  call void @linear_perm(ptr noundef %112, ptr noundef %118, i32 noundef %119, i32 noundef %122)
  call void @llvm.lifetime.end.p0(i64 8, ptr %8) #8
  call void @llvm.lifetime.end.p0(i64 8, ptr %7) #8
  call void @llvm.lifetime.end.p0(i64 4, ptr %6) #8
  call void @llvm.lifetime.end.p0(i64 4, ptr %5) #8
  ret void
}