; Function Attrs: cold nofree norecurse nosync nounwind optsize memory(readwrite, inaccessiblemem: none) uwtable
define internal fastcc void @construct_perm_table(ptr noundef captures(none) %0, i32 noundef range(i32 0, 4) %1) unnamed_addr #4 {
  %3 = getelementptr inbounds nuw i8, ptr %0, i64 64
  %4 = load ptr, ptr %3, align 8, !tbaa !30
  %5 = getelementptr inbounds nuw i8, ptr %0, i64 34088
  %6 = load ptr, ptr %5, align 8, !tbaa !73
  %7 = icmp eq i32 %1, 3
  br i1 %7, label %.split, label %.split38

.split:                                           ; preds = %2
  %8 = getelementptr inbounds nuw i8, ptr %4, i64 226
  %9 = load i8, ptr %8, align 2, !tbaa !70
  %10 = zext i8 %9 to i32
  %11 = load ptr, ptr %0, align 8, !tbaa !53
  %12 = getelementptr inbounds nuw i8, ptr %11, i64 356
  %13 = load i32, ptr %12, align 4, !tbaa !54
  %14 = getelementptr inbounds nuw i8, ptr %0, i64 34020
  %15 = load i32, ptr %14, align 4, !tbaa !60
  %16 = getelementptr inbounds nuw i8, ptr %0, i64 33970
  %17 = getelementptr inbounds nuw i8, ptr %0, i64 33975
  tail call fastcc void @permutate_in_line(ptr noundef %6, i32 noundef %15, i32 noundef %13, i32 noundef %10, ptr noundef nonnull %16, i32 noundef 3)
  br label %36

.split38:                                         ; preds = %2
  %18 = getelementptr inbounds nuw i8, ptr %4, i64 192
  %19 = load i16, ptr %18, align 8, !tbaa !37
  %20 = zext nneg i32 %1 to i64
  %21 = getelementptr inbounds nuw [3 x %struct.TwinVQFrameMode], ptr %4, i64 0, i64 %20
  %22 = load i8, ptr %21, align 8, !tbaa !55
  %23 = zext i8 %22 to i32
  %.rhs.trunc = zext i8 %22 to i16
  %24 = udiv i16 %19, %.rhs.trunc
  %.zext = zext i16 %24 to i32
  %25 = load ptr, ptr %0, align 8, !tbaa !53
  %26 = getelementptr inbounds nuw i8, ptr %25, i64 356
  %27 = load i32, ptr %26, align 4, !tbaa !54
  %28 = mul nsw i32 %27, %23
  %29 = getelementptr inbounds nuw i8, ptr %0, i64 34008
  %30 = getelementptr inbounds nuw [4 x i32], ptr %29, i64 0, i64 %20
  %31 = load i32, ptr %30, align 4, !tbaa !60
  %32 = getelementptr inbounds nuw i8, ptr %0, i64 33964
  %33 = getelementptr inbounds nuw [4 x [2 x i8]], ptr %32, i64 0, i64 %20
  %34 = getelementptr inbounds nuw i8, ptr %0, i64 33972
  %35 = getelementptr inbounds nuw [4 x i8], ptr %34, i64 0, i64 %20
  tail call fastcc void @permutate_in_line(ptr noundef %6, i32 noundef %31, i32 noundef %28, i32 noundef %.zext, ptr noundef nonnull %33, i32 noundef %1)
  br label %36

36:                                               ; preds = %.split38, %.split
  %37 = phi i64 [ 3, %.split ], [ %20, %.split38 ]
  %38 = phi ptr [ %14, %.split ], [ %30, %.split38 ]
  %39 = phi ptr [ %16, %.split ], [ %33, %.split38 ]
  %40 = phi ptr [ %17, %.split ], [ %35, %.split38 ]
  %.036 = phi i32 [ %13, %.split ], [ %28, %.split38 ]
  %.0 = phi i32 [ %10, %.split ], [ %.zext, %.split38 ]
  %41 = getelementptr inbounds nuw i8, ptr %0, i64 1196
  %42 = getelementptr inbounds nuw [4 x [4096 x i16]], ptr %41, i64 0, i64 %37
  %43 = load i32, ptr %38, align 4, !tbaa !60
  %44 = icmp sgt i32 %43, 0
  br i1 %44, label %.preheader.preheader.i, label %transpose_perm.exit

.preheader.preheader.i:                           ; preds = %36
  %45 = load i8, ptr %40, align 1, !tbaa !61
  %46 = zext nneg i32 %43 to i64
  %47 = zext i8 %45 to i64
  br label %.preheader.i

.preheader.i:                                     ; preds = %._crit_edge.i, %.preheader.preheader.i
  %indvars.iv26.i = phi i64 [ 0, %.preheader.preheader.i ], [ %indvars.iv.next27.i, %._crit_edge.i ]
  %.019.i = phi i32 [ 0, %.preheader.preheader.i ], [ %.1.lcssa.i, %._crit_edge.i ]
  %48 = icmp samesign uge i64 %indvars.iv26.i, %47
  %49 = zext i1 %48 to i64
  %50 = getelementptr inbounds nuw i8, ptr %39, i64 %49
  %51 = load i8, ptr %50, align 1, !tbaa !61
  %.not.i = icmp eq i8 %51, 0
  br i1 %.not.i, label %._crit_edge.i, label %.lr.ph.preheader.i

.lr.ph.preheader.i:                               ; preds = %.preheader.i
  %52 = sext i32 %.019.i to i64
  %invariant.gep.i = getelementptr inbounds nuw i16, ptr %6, i64 %indvars.iv26.i
  br label %.lr.ph.i

.lr.ph.i:                                         ; preds = %.lr.ph.i, %.lr.ph.preheader.i
  %indvars.iv21.i = phi i64 [ 0, %.lr.ph.preheader.i ], [ %indvars.iv.next22.i, %.lr.ph.i ]
  %indvars.iv.i = phi i64 [ %52, %.lr.ph.preheader.i ], [ %indvars.iv.next.i, %.lr.ph.i ]
  %53 = mul nuw nsw i64 %indvars.iv21.i, %46
  %gep.i = getelementptr inbounds nuw i16, ptr %invariant.gep.i, i64 %53
  %54 = load i16, ptr %gep.i, align 2, !tbaa !62
  %indvars.iv.next.i = add nsw i64 %indvars.iv.i, 1
  %55 = getelementptr inbounds i16, ptr %42, i64 %indvars.iv.i
  store i16 %54, ptr %55, align 2, !tbaa !62
  %indvars.iv.next22.i = add nuw nsw i64 %indvars.iv21.i, 1
  %56 = load i8, ptr %50, align 1, !tbaa !61
  %57 = zext i8 %56 to i64
  %58 = icmp samesign ult i64 %indvars.iv.next22.i, %57
  br i1 %58, label %.lr.ph.i, label %._crit_edge.loopexit.i, !llvm.loop !130

._crit_edge.loopexit.i:                           ; preds = %.lr.ph.i
  %59 = trunc nsw i64 %indvars.iv.next.i to i32
  br label %._crit_edge.i

._crit_edge.i:                                    ; preds = %._crit_edge.loopexit.i, %.preheader.i
  %.1.lcssa.i = phi i32 [ %.019.i, %.preheader.i ], [ %59, %._crit_edge.loopexit.i ]
  %indvars.iv.next27.i = add nuw nsw i64 %indvars.iv26.i, 1
  %exitcond.not.i = icmp eq i64 %indvars.iv.next27.i, %46
  br i1 %exitcond.not.i, label %transpose_perm.exit, label %.preheader.i, !llvm.loop !131

transpose_perm.exit:                              ; preds = %._crit_edge.i, %36
  %60 = mul nsw i32 %.0, %.036
  %61 = icmp sgt i32 %60, 0
  br i1 %61, label %.lr.ph.preheader.i41, label %linear_perm.exit

.lr.ph.preheader.i41:                             ; preds = %transpose_perm.exit
  %wide.trip.count.i = zext nneg i32 %60 to i64
  br label %.lr.ph.i42

.lr.ph.i42:                                       ; preds = %.lr.ph.i42, %.lr.ph.preheader.i41
  %indvars.iv.i43 = phi i64 [ 0, %.lr.ph.preheader.i41 ], [ %indvars.iv.next.i44, %.lr.ph.i42 ]
  %62 = getelementptr inbounds nuw i16, ptr %42, i64 %indvars.iv.i43
  %63 = load i16, ptr %62, align 2, !tbaa !62
  %64 = sext i16 %63 to i32
  %65 = srem i32 %64, %.036
  %66 = mul nsw i32 %65, %.0
  %67 = sdiv i32 %64, %.036
  %68 = add nsw i32 %66, %67
  %69 = trunc i32 %68 to i16
  store i16 %69, ptr %62, align 2, !tbaa !62
  %indvars.iv.next.i44 = add nuw nsw i64 %indvars.iv.i43, 1
  %exitcond.not.i45 = icmp eq i64 %indvars.iv.next.i44, %wide.trip.count.i
  br i1 %exitcond.not.i45, label %linear_perm.exit, label %.lr.ph.i42, !llvm.loop !132

linear_perm.exit:                                 ; preds = %.lr.ph.i42, %transpose_perm.exit
  ret void
}